target datalayout = "e-m:e-p270:32:32-p271:32:32-p272:64:64-i64:64-i128:128-f80:128-n8:16:32:64-S128"
target triple = "x86_64-pc-linux-gnu"

%"class.std::ios_base::Init" = type { i8 }

@_ZStL8__ioinit = internal global %"class.std::ios_base::Init" zeroinitializer, align 1
@__dso_handle = external hidden global i8
@.str = private unnamed_addr constant [24 x i8] c"OCIO_DISABLE_ALL_CACHES\00", align 1
@_ZN19OpenColorIO_v2_5dev23OCIO_DISABLE_ALL_CACHESE = global ptr @.str, align 8
@.str.1 = private unnamed_addr constant [30 x i8] c"OCIO_DISABLE_PROCESSOR_CACHES\00", align 1
@_ZN19OpenColorIO_v2_5dev29OCIO_DISABLE_PROCESSOR_CACHESE = global ptr @.str.1, align 8
@.str.2 = private unnamed_addr constant [28 x i8] c"OCIO_DISABLE_CACHE_FALLBACK\00", align 1
@_ZN19OpenColorIO_v2_5dev27OCIO_DISABLE_CACHE_FALLBACKE = global ptr @.str.2, align 8
@llvm.global_ctors = appending global [1 x { i32, ptr, ptr }] [{ i32, ptr, ptr } { i32 65535, ptr @_GLOBAL__sub_I_Caching.cpp, ptr null }]

; Function Attrs: uwtable
define internal void @__cxx_global_var_init() #0 section ".text.startup" {
  call void @_ZNSt8ios_base4InitC1Ev(ptr noundef nonnull align 1 dereferenceable(1) @_ZStL8__ioinit)
  %1 = call i32 @__cxa_atexit(ptr @_ZNSt8ios_base4InitD1Ev, ptr @_ZStL8__ioinit, ptr @__dso_handle) #3
  ret void
}

declare void @_ZNSt8ios_base4InitC1Ev(ptr noundef nonnull align 1 dereferenceable(1)) unnamed_addr #1

; Function Attrs: nounwind
declare void @_ZNSt8ios_base4InitD1Ev(ptr noundef nonnull align 1 dereferenceable(1)) unnamed_addr #2

; Function Attrs: nounwind
declare i32 @__cxa_atexit(ptr, ptr, ptr) #3

; Function Attrs: mustprogress uwtable
define void @_ZN19OpenColorIO_v2_5dev14ClearAllCachesEv() #4 {
  call void @_ZN19OpenColorIO_v2_5dev15ClearPathCachesEv()
  call void @_ZN19OpenColorIO_v2_5dev24ClearFileTransformCachesEv()
  ret void
}

declare void @_ZN19OpenColorIO_v2_5dev15ClearPathCachesEv() #1

declare void @_ZN19OpenColorIO_v2_5dev24ClearFileTransformCachesEv() #1

; Function Attrs: uwtable
define internal void @_GLOBAL__sub_I_Caching.cpp() #0 section ".text.startup" {
  call void @__cxx_global_var_init()
  ret void
}


!llvm.module.flags = !{!0, !1, !2}

!0 = !{i32 1, !"wchar_size", i32 4}
!1 = !{i32 8, !"PIC Level", i32 2}
!2 = !{i32 7, !"uwtable", i32 2}
